target datalayout = "e-m:e-p270:32:32-p271:32:32-p272:64:64-i64:64-i128:128-f80:128-n8:16:32:64-S128"
target triple = "x86_64-pc-linux-gnu"

%"struct.icu_77::FormattedStringBuilder::Field" = type { i8 }
%"struct.icu_77::number::impl::UFormattedNumberImpl" = type { %"struct.icu_77::UFormattedValueImpl", %"class.icu_77::IcuCApiHelper.0", [4 x i8], %"class.icu_77::number::FormattedNumber", %"class.icu_77::number::impl::UFormattedNumberData" }
%"struct.icu_77::UFormattedValueImpl" = type { %"class.icu_77::IcuCApiHelper", ptr }
%"class.icu_77::IcuCApiHelper" = type { i32 }
%"class.icu_77::IcuCApiHelper.0" = type { i32 }
%"class.icu_77::number::FormattedNumber" = type <{ %"class.icu_77::FormattedValue", ptr, i32, [4 x i8] }>
%"class.icu_77::FormattedValue" = type { ptr }
%"class.icu_77::number::impl::UFormattedNumberData" = type { %"class.icu_77::FormattedValueStringBuilderImpl.base", [4 x i8], %"class.icu_77::number::impl::DecimalQuantity", %"class.icu_77::MeasureUnit", ptr }
%"class.icu_77::FormattedValueStringBuilderImpl.base" = type <{ %"class.icu_77::FormattedValue", %"class.icu_77::FormattedStringBuilder", %"struct.icu_77::FormattedStringBuilder::Field", [7 x i8], %"class.icu_77::MaybeStackArray.3", i32 }>
%"class.icu_77::FormattedStringBuilder" = type { i8, %"union.icu_77::FormattedStringBuilder::ValueOrHeapArray", %"union.icu_77::FormattedStringBuilder::ValueOrHeapArray.1", i32, i32 }
%"union.icu_77::FormattedStringBuilder::ValueOrHeapArray" = type { %struct.anon, [64 x i8] }
%struct.anon = type { ptr, i32 }
%"union.icu_77::FormattedStringBuilder::ValueOrHeapArray.1" = type { %struct.anon.2, [24 x i8] }
%struct.anon.2 = type { ptr, i32 }
%"class.icu_77::MaybeStackArray.3" = type { ptr, i32, i8, [8 x %"struct.icu_77::SpanInfo"] }
%"struct.icu_77::SpanInfo" = type { i32, i32, i32, i32 }
%"class.icu_77::number::impl::DecimalQuantity" = type <{ %"class.icu_77::IFixedDecimal", i8, [3 x i8], i32, i32, i8, i8, [2 x i8], double, i32, i32, i32, i32, %union.anon, i8, i8, [6 x i8] }>
%"class.icu_77::IFixedDecimal" = type { ptr }
%union.anon = type { %struct.anon.4 }
%struct.anon.4 = type { ptr, i32 }
%"class.icu_77::MeasureUnit" = type <{ %"class.icu_77::UObject", ptr, i16, i8, [5 x i8] }>
%"class.icu_77::UObject" = type { ptr }

@_ZN6icu_77L15kUndefinedFieldE = internal constant %"struct.icu_77::FormattedStringBuilder::Field" zeroinitializer, align 1
@.str = private unnamed_addr constant [1 x i8] zeroinitializer, align 1

; Function Attrs: inlinehint mustprogress nounwind uwtable
define linkonce_odr void @_ZN6icu_7714FormattedValueC2Ev(ptr noundef nonnull align 8 dereferenceable(8) %0) unnamed_addr #2 comdat align 2 {
  %2 = alloca ptr, align 8
  store ptr %0, ptr %2, align 8, !tbaa !157
  %3 = load ptr, ptr %2, align 8
  store ptr getelementptr inbounds inrange(-16, 48) ({ [8 x ptr] }, ptr @_ZTVN6icu_7714FormattedValueE, i32 0, i32 0, i32 2), ptr %3, align 8, !tbaa !39
  ret void
}

; Function Attrs: inlinehint mustprogress nounwind uwtable
define linkonce_odr void @_ZN6icu_7713IcuCApiHelperI15UFormattedValueNS_19UFormattedValueImplELi1430672896EEC2Ev(ptr noundef nonnull align 4 dereferenceable(4) %0) unnamed_addr #2 comdat align 2 {
  %2 = alloca ptr, align 8
  store ptr %0, ptr %2, align 8, !tbaa !62
  %3 = load ptr, ptr %2, align 8
  %4 = getelementptr inbounds nuw %"class.icu_77::IcuCApiHelper", ptr %3, i32 0, i32 0
  store i32 1430672896, ptr %4, align 4, !tbaa !64
  ret void
}

; Function Attrs: mustprogress nounwind uwtable
define linkonce_odr void @_ZN6icu_7713IcuCApiHelperI15UFormattedValueNS_19UFormattedValueImplELi1430672896EED2Ev(ptr noundef nonnull align 4 dereferenceable(4) %0) unnamed_addr #0 comdat align 2 {
  %2 = alloca ptr, align 8
  store ptr %0, ptr %2, align 8, !tbaa !62
  %3 = load ptr, ptr %2, align 8
  %4 = getelementptr inbounds nuw %"class.icu_77::IcuCApiHelper", ptr %3, i32 0, i32 0
  store i32 0, ptr %4, align 4, !tbaa !64
  ret void
}

; Function Attrs: mustprogress nounwind uwtable
define linkonce_odr void @_ZN6icu_7713IcuCApiHelperI16UFormattedNumberNS_6number4impl20UFormattedNumberImplELi1178881536EED2Ev(ptr noundef nonnull align 4 dereferenceable(4) %0) unnamed_addr #0 comdat align 2 {
  %2 = alloca ptr, align 8
  store ptr %0, ptr %2, align 8, !tbaa !31
  %3 = load ptr, ptr %2, align 8
  %4 = getelementptr inbounds nuw %"class.icu_77::IcuCApiHelper.0", ptr %3, i32 0, i32 0
  store i32 0, ptr %4, align 4, !tbaa !33
  ret void
}

; Function Attrs: mustprogress uwtable
define linkonce_odr void @_ZN6icu_776number4impl20UFormattedNumberDataC2Ev(ptr noundef nonnull align 8 dereferenceable(408) %0) unnamed_addr #1 comdat align 2 personality ptr @__gxx_personality_v0 {
  %2 = alloca ptr, align 8
  %3 = alloca %"struct.icu_77::FormattedStringBuilder::Field", align 1
  %4 = alloca ptr, align 8
  %5 = alloca i32, align 4
  store ptr %0, ptr %2, align 8, !tbaa !37
  %6 = load ptr, ptr %2, align 8
  call void @llvm.memcpy.p0.p0.i64(ptr align 1 %3, ptr align 1 @_ZN6icu_77L15kUndefinedFieldE, i64 1, i1 false), !tbaa.struct !45
  %7 = getelementptr inbounds nuw %"struct.icu_77::FormattedStringBuilder::Field", ptr %3, i32 0, i32 0
  %8 = load i8, ptr %7, align 1
  call void @_ZN6icu_7731FormattedValueStringBuilderImplC2ENS_22FormattedStringBuilder5FieldE(ptr noundef nonnull align 8 dereferenceable(300) %6, i8 %8)
  store ptr getelementptr inbounds inrange(-16, 48) ({ [8 x ptr] }, ptr @_ZTVN6icu_776number4impl20UFormattedNumberDataE, i32 0, i32 0, i32 2), ptr %6, align 8, !tbaa !39
  %9 = getelementptr inbounds nuw %"class.icu_77::number::impl::UFormattedNumberData", ptr %6, i32 0, i32 2
  invoke void @_ZN6icu_776number4impl15DecimalQuantityC1Ev(ptr noundef nonnull align 8 dereferenceable(66) %9)
          to label %10 unwind label %14

10:                                               ; preds = %1
  %11 = getelementptr inbounds nuw %"class.icu_77::number::impl::UFormattedNumberData", ptr %6, i32 0, i32 3
  invoke void @_ZN6icu_7711MeasureUnitC1Ev(ptr noundef nonnull align 8 dereferenceable(19) %11)
          to label %12 unwind label %18

12:                                               ; preds = %10
  %13 = getelementptr inbounds nuw %"class.icu_77::number::impl::UFormattedNumberData", ptr %6, i32 0, i32 4
  store ptr @.str, ptr %13, align 8, !tbaa !47
  ret void

14:                                               ; preds = %1
  %15 = landingpad { ptr, i32 }
          cleanup
  %16 = extractvalue { ptr, i32 } %15, 0
  store ptr %16, ptr %4, align 8
  %17 = extractvalue { ptr, i32 } %15, 1
  store i32 %17, ptr %5, align 4
  br label %22

18:                                               ; preds = %10
  %19 = landingpad { ptr, i32 }
          cleanup
  %20 = extractvalue { ptr, i32 } %19, 0
  store ptr %20, ptr %4, align 8
  %21 = extractvalue { ptr, i32 } %19, 1
  store i32 %21, ptr %5, align 4
  call void @_ZN6icu_776number4impl15DecimalQuantityD1Ev(ptr noundef nonnull align 8 dereferenceable(66) %9) #11
  br label %22

22:                                               ; preds = %18, %14
  call void @_ZN6icu_7731FormattedValueStringBuilderImplD2Ev(ptr noundef nonnull align 8 dereferenceable(300) %6) #11
  br label %23

23:                                               ; preds = %22
  %24 = load ptr, ptr %4, align 8
  %25 = load i32, ptr %5, align 4
  %26 = insertvalue { ptr, i32 } poison, ptr %24, 0
  %27 = insertvalue { ptr, i32 } %26, i32 %25, 1
  resume { ptr, i32 } %27
}

; Function Attrs: mustprogress nounwind uwtable
define linkonce_odr void @_ZN6icu_776number15FormattedNumberC2EPNS0_4impl20UFormattedNumberDataE(ptr noundef nonnull align 8 dereferenceable(20) %0, ptr noundef %1) unnamed_addr #0 comdat align 2 {
  %3 = alloca ptr, align 8
  %4 = alloca ptr, align 8
  store ptr %0, ptr %3, align 8, !tbaa !35
  store ptr %1, ptr %4, align 8, !tbaa !37
  %5 = load ptr, ptr %3, align 8
  call void @_ZN6icu_7714FormattedValueC2Ev(ptr noundef nonnull align 8 dereferenceable(8) %5) #11
  store ptr getelementptr inbounds inrange(-16, 48) ({ [8 x ptr] }, ptr @_ZTVN6icu_776number15FormattedNumberE, i32 0, i32 0, i32 2), ptr %5, align 8, !tbaa !39
  %6 = getelementptr inbounds nuw %"class.icu_77::number::FormattedNumber", ptr %5, i32 0, i32 1
  %7 = load ptr, ptr %4, align 8, !tbaa !37
  store ptr %7, ptr %6, align 8, !tbaa !41
  %8 = getelementptr inbounds nuw %"class.icu_77::number::FormattedNumber", ptr %5, i32 0, i32 2
  store i32 0, ptr %8, align 8, !tbaa !44
  ret void
}

; Function Attrs: inlinehint mustprogress nounwind uwtable
define linkonce_odr void @_ZN6icu_7713IcuCApiHelperI16UFormattedNumberNS_6number4impl20UFormattedNumberImplELi1178881536EEC2Ev(ptr noundef nonnull align 4 dereferenceable(4) %0) unnamed_addr #2 comdat align 2 {
  %2 = alloca ptr, align 8
  store ptr %0, ptr %2, align 8, !tbaa !31
  %3 = load ptr, ptr %2, align 8
  %4 = getelementptr inbounds nuw %"class.icu_77::IcuCApiHelper.0", ptr %3, i32 0, i32 0
  store i32 1178881536, ptr %4, align 4, !tbaa !33
  ret void
}

; Function Attrs: inlinehint mustprogress nounwind uwtable
define linkonce_odr void @_ZN6icu_7719UFormattedValueImplC2Ev(ptr noundef nonnull align 8 dereferenceable(16) %0) unnamed_addr #2 comdat align 2 {
  %2 = alloca ptr, align 8
  store ptr %0, ptr %2, align 8, !tbaa !29
  %3 = load ptr, ptr %2, align 8
  call void @_ZN6icu_7713IcuCApiHelperI15UFormattedValueNS_19UFormattedValueImplELi1430672896EEC2Ev(ptr noundef nonnull align 4 dereferenceable(4) %3) #11
  %4 = getelementptr inbounds nuw %"struct.icu_77::UFormattedValueImpl", ptr %3, i32 0, i32 1
  store ptr null, ptr %4, align 8, !tbaa !25
  ret void
}

; Function Attrs: mustprogress uwtable
define void @_ZN6icu_776number4impl20UFormattedNumberImplC2Ev(ptr noundef nonnull align 8 dereferenceable(456) %0) unnamed_addr #1 align 2 personality ptr @__gxx_personality_v0 {
  %2 = alloca ptr, align 8
  %3 = alloca ptr, align 8
  %4 = alloca i32, align 4
  store ptr %0, ptr %2, align 8, !tbaa !23
  %5 = load ptr, ptr %2, align 8
  call void @_ZN6icu_7719UFormattedValueImplC2Ev(ptr noundef nonnull align 8 dereferenceable(16) %5) #11
  %6 = getelementptr inbounds i8, ptr %5, i64 16
  call void @_ZN6icu_7713IcuCApiHelperI16UFormattedNumberNS_6number4impl20UFormattedNumberImplELi1178881536EEC2Ev(ptr noundef nonnull align 4 dereferenceable(4) %6) #11
  %7 = getelementptr inbounds nuw %"struct.icu_77::number::impl::UFormattedNumberImpl", ptr %5, i32 0, i32 3
  %8 = getelementptr inbounds nuw %"struct.icu_77::number::impl::UFormattedNumberImpl", ptr %5, i32 0, i32 4
  invoke void @_ZN6icu_776number15FormattedNumberC2EPNS0_4impl20UFormattedNumberDataE(ptr noundef nonnull align 8 dereferenceable(20) %7, ptr noundef %8)
          to label %9 unwind label %14

9:                                                ; preds = %1
  %10 = getelementptr inbounds nuw %"struct.icu_77::number::impl::UFormattedNumberImpl", ptr %5, i32 0, i32 4
  invoke void @_ZN6icu_776number4impl20UFormattedNumberDataC2Ev(ptr noundef nonnull align 8 dereferenceable(408) %10)
          to label %11 unwind label %18

11:                                               ; preds = %9
  %12 = getelementptr inbounds nuw %"struct.icu_77::number::impl::UFormattedNumberImpl", ptr %5, i32 0, i32 3
  %13 = getelementptr inbounds nuw %"struct.icu_77::UFormattedValueImpl", ptr %5, i32 0, i32 1
  store ptr %12, ptr %13, align 8, !tbaa !25
  ret void

14:                                               ; preds = %1
  %15 = landingpad { ptr, i32 }
          cleanup
  %16 = extractvalue { ptr, i32 } %15, 0
  store ptr %16, ptr %3, align 8
  %17 = extractvalue { ptr, i32 } %15, 1
  store i32 %17, ptr %4, align 4
  br label %22

18:                                               ; preds = %9
  %19 = landingpad { ptr, i32 }
          cleanup
  %20 = extractvalue { ptr, i32 } %19, 0
  store ptr %20, ptr %3, align 8
  %21 = extractvalue { ptr, i32 } %19, 1
  store i32 %21, ptr %4, align 4
  call void @_ZN6icu_776number15FormattedNumberD1Ev(ptr noundef nonnull align 8 dereferenceable(20) %7) #11
  br label %22

22:                                               ; preds = %18, %14
  %23 = getelementptr inbounds i8, ptr %5, i64 16
  call void @_ZN6icu_7713IcuCApiHelperI16UFormattedNumberNS_6number4impl20UFormattedNumberImplELi1178881536EED2Ev(ptr noundef nonnull align 4 dereferenceable(4) %23) #11
  call void @_ZN6icu_7713IcuCApiHelperI15UFormattedValueNS_19UFormattedValueImplELi1430672896EED2Ev(ptr noundef nonnull align 8 dereferenceable(16) %5) #11
  br label %24

24:                                               ; preds = %22
  %25 = load ptr, ptr %3, align 8
  %26 = load i32, ptr %4, align 4
  %27 = insertvalue { ptr, i32 } poison, ptr %25, 0
  %28 = insertvalue { ptr, i32 } %27, i32 %26, 1
  resume { ptr, i32 } %28
}